target datalayout = "e-m:e-p270:32:32-p271:32:32-p272:64:64-i64:64-i128:128-f80:128-n8:16:32:64-S128"
target triple = "x86_64-pc-linux-gnu"

%struct.rxinfo = type { i8, i8, i16, i32, i32, i32, i32 }

@hf_afs_kauth_errcode = internal global i32 0, align 4

; Function Attrs: null_pointer_is_valid sspstrong uwtable
define internal void @dissect_kauth_reply(ptr noundef %0, ptr noundef %1, i32 noundef %2) #0 {
  %4 = alloca ptr, align 8
  %5 = alloca ptr, align 8
  %6 = alloca i32, align 4
  store ptr %0, ptr %4, align 8
  store ptr %1, ptr %5, align 8
  store i32 %2, ptr %6, align 4
  %7 = load ptr, ptr %5, align 8
  %8 = getelementptr inbounds nuw %struct.rxinfo, ptr %7, i32 0, i32 0
  %9 = load i8, ptr %8, align 4
  %10 = zext i8 %9 to i32
  %11 = icmp eq i32 %10, 1
  br i1 %11, label %12, label %15

12:                                               ; preds = %3
  %13 = load i32, ptr %6, align 4
  switch i32 %13, label %14 [
  ]

14:                                               ; preds = %12
  br label %26

15:                                               ; preds = %3
  %16 = load ptr, ptr %5, align 8
  %17 = getelementptr inbounds nuw %struct.rxinfo, ptr %16, i32 0, i32 0
  %18 = load i8, ptr %17, align 4
  %19 = zext i8 %18 to i32
  %20 = icmp eq i32 %19, 4
  br i1 %20, label %21, label %25

21:                                               ; preds = %15
  %22 = load ptr, ptr %4, align 8
  %23 = load i32, ptr @hf_afs_kauth_errcode, align 4
  %24 = call ptr @ptvcursor_add(ptr noundef %22, i32 noundef %23, i32 noundef 4, i32 noundef 0)
  br label %25

25:                                               ; preds = %21, %15
  br label %26

26:                                               ; preds = %25, %14
  ret void
}