; Function Attrs: null_pointer_is_valid sspstrong uwtable
define internal void @dissect_kauth_reply(ptr noundef %0, ptr noundef readonly captures(none) %1, i32 %2) #0 {
  %4 = load i8, ptr %1, align 4
  %cond = icmp eq i8 %4, 4
  br i1 %cond, label %5, label %8

5:                                                ; preds = %3
  %6 = load i32, ptr @hf_afs_kauth_errcode, align 4
  %7 = tail call ptr @ptvcursor_add(ptr noundef %0, i32 noundef %6, i32 noundef 4, i32 noundef 0)
  br label %8

8:                                                ; preds = %3, %5
  ret void
}